(dp0
V203.137.176.53
p1
(V\u514d\u8d39\u6d4b\u8bd5\u7ebf\u8def
p2
V443
p3
V2525
p4
V2525
p5
Vusassh
p6
V12/19\u66f4\u65b0
p7
V150
p8
tp9
sV60.249.152.166
p10
(V\u53f0\u6e7e-s19
p11
V2222
p12
V2525
p13
V2525
p14
Vusassh
p15
V2017/01/16\u66f4\u65b0
p16
V69.3
p17
tp18
sV45.63.86.222
p19
(V\u7f8e\u56fd-s10
p20
V443
p21
V2525
p22
V2525
p23
Vusassh
p24
V9/2\u66f4\u65b0
p25
V206
p26
tp27
sV45.63.85.47
p28
(V\u7f8e\u56fd-s2
p29
V443
p30
V2525
p31
V2525
p32
Vusassh
p33
V2016/10/25\u66f4\u65b0\u7f8e\u56fd\u65b0\u7ebf\u8def
p34
V235
p35
tp36
sV210.152.8.34
p37
(V\u65e5\u672c-s15
p38
V443
p39
V2525
p40
V2525
p41
Vusassh
p42
V8/18\u66f4\u65b0
p43
V165
p44
tp45
sV106.184.3.35
p46
(V\u65e5\u672c-s7
p47
V443
p48
V2525
p49
V2525
p50
Vusassh
p51
V10/7\u5df2\u66f4\u65b0
p52
V146
p53
tp54
sV210.129.17.7
p55
(V\u65e5\u672c-s6[\u65b0]
p56
V1443
p57
V2525
p58
V2525
p59
Vusassh
p60
V03/11\u66f4\u65b0
p61
V147
p62
tp63
sV104.238.173.11
p64
(V\u82f1\u56fd-s9
p65
V1443
p66
V2525
p67
V2525
p68
Vusassh
p69
V9/13\u5df2\u66f4\u65b0
p70
V213
p71
tp72
sV47.90.22.190
p73
(V\u9999\u6e2f-s18
p74
V443
p75
V2525
p76
V2525
p77
Vusassh
p78
V10/27\u66f4\u65b0
p79
V59.4
p80
tp81
sV104.238.153.144
p82
(V\u7f8e\u56fd-s4
p83
V443
p84
V2525
p85
V2525
p86
Vusassh
p87
V9/3\u66f4\u65b0
p88
V226
p89
tp90
sV153.126.139.69
p91
(V\u65e5\u672c\u5317\u6d77\u9053-s5
p92
V1443
p93
V2525
p94
V2525
p95
Vusassh
p96
V12/23\u66f4\u65b0
p97
V167
p98
tp99
sV45.76.66.13
p100
(V\u7f8e\u56fd-s3
p101
V443
p102
V2525
p103
V2525
p104
Vusassh
p105
V10/25\u66f4\u65b0
p106
V185
p107
tp108
sV106.186.126.115
p109
(V\u65e5\u672c-s8\u65b0
p110
V443
p111
V2525
p112
V2525
p113
Vusassh
p114
V2016/5/22\u66f4\u65b0
p115
V144
p116
tp117
sV60.249.152.171
p118
(V\u53f0\u6e7e-s20
p119
V443
p120
V2525
p121
V2525
p122
Vusassh
p123
V6/27\u66f4\u65b0
p124
V69.3
p125
tp126
sV103.233.80.123
p127
(V\u65b0\u52a0\u5761-s12
p128
V1443
p129
V2525
p130
V2525
p131
Vusassh
p132
V12/23\u66f4\u65b0
p133
V75.7
p134
tp135
sV47.89.13.207
p136
(V\u9999\u6e2f-s17
p137
V1443
p138
V2525
p139
V2525
p140
Vusassh
p141
V2017/1/22\u5168\u65b0\u4e0a\u7ebf
p142
V57.2
p143
tp144
sV210.140.82.235
p145
(V\u65e5\u672c-s14
p146
V1443
p147
V2525
p148
V2525
p149
Vusassh
p150
V10/7\u66f4\u65b0
p151
V150
p152
tp153
sV210.140.75.226
p154
(V\u65e5\u672c-s1
p155
V443
p156
V2525
p157
V2525
p158
Vusassh
p159
V10/07\u66f4\u65b0
p160
V150
p161
tp162
sV160.16.234.195
p163
(V\u65e5\u672c\u4e1c\u4eac-s21
p164
V1443
p165
V2525
p166
V2525
p167
Vusassh
p168
V12/23\u66f4\u65b0
p169
V151
p170
tp171
sV139.162.79.103
p172
(V\u65e5\u672c-s16
p173
V443
p174
V2525
p175
V2525
p176
Vusassh
p177
V11/23\u66f4\u65b0
p178
V138
p179
tp180
sV103.242.132.8
p181
(V\u9999\u6e2f-s23
p182
V443
p183
V2525
p184
V2525
p185
Vusassh
p186
V2015/1/4\u51cc\u6668\u66f4\u65b0
p187
V58.9
p188
tp189
s.